target datalayout = "e-m:e-p270:32:32-p271:32:32-p272:64:64-i64:64-i128:128-f80:128-n8:16:32:64-S128"
target triple = "x86_64-pc-linux-gnu"

@libctx = internal global ptr null, align 8
@.str.6 = private unnamed_addr constant [37 x i8] c"../openssl/test/provider_pkey_test.c\00", align 1
@.str.7 = private unnamed_addr constant [34 x i8] c"fake_rsa = fake_rsa_start(libctx)\00", align 1
@.str.8 = private unnamed_addr constant [46 x i8] c"deflt = OSSL_PROVIDER_load(libctx, \22default\22)\00", align 1
@.str.9 = private unnamed_addr constant [8 x i8] c"default\00", align 1
@.str.11 = private unnamed_addr constant [4 x i8] c"RSA\00", align 1
@.str.14 = private unnamed_addr constant [19 x i8] c"?provider=fake-rsa\00", align 1
@.str.31 = private unnamed_addr constant [54 x i8] c"ctx = EVP_PKEY_CTX_new_from_name(libctx, \22RSA\22, NULL)\00", align 1
@.str.32 = private unnamed_addr constant [26 x i8] c"EVP_PKEY_keygen_init(ctx)\00", align 1
@.str.33 = private unnamed_addr constant [2 x i8] c"0\00", align 1
@.str.34 = private unnamed_addr constant [43 x i8] c"provider = EVP_PKEY_CTX_get0_provider(ctx)\00", align 1
@.str.35 = private unnamed_addr constant [45 x i8] c"provname = OSSL_PROVIDER_get0_name(provider)\00", align 1
@.str.36 = private unnamed_addr constant [9 x i8] c"provname\00", align 1
@.str.37 = private unnamed_addr constant [10 x i8] c"\22default\22\00", align 1
@.str.38 = private unnamed_addr constant [70 x i8] c"ctx = EVP_PKEY_CTX_new_from_name(libctx, \22RSA\22, \22?provider=fake-rsa\22)\00", align 1
@.str.39 = private unnamed_addr constant [11 x i8] c"\22fake-rsa\22\00", align 1
@.str.40 = private unnamed_addr constant [9 x i8] c"fake-rsa\00", align 1

; Function Attrs: nounwind uwtable
define internal i32 @test_alternative_keygen_init() #0 {
  %1 = alloca i32, align 4
  %2 = alloca ptr, align 8
  %3 = alloca ptr, align 8
  %4 = alloca ptr, align 8
  %5 = alloca ptr, align 8
  %6 = alloca ptr, align 8
  %7 = alloca i32, align 4
  %8 = alloca i32, align 4
  call void @llvm.lifetime.start.p0(i64 8, ptr %2) #3
  store ptr null, ptr %2, align 8, !tbaa !15
  call void @llvm.lifetime.start.p0(i64 8, ptr %3) #3
  store ptr null, ptr %3, align 8, !tbaa !9
  call void @llvm.lifetime.start.p0(i64 8, ptr %4) #3
  store ptr null, ptr %4, align 8, !tbaa !9
  call void @llvm.lifetime.start.p0(i64 8, ptr %5) #3
  call void @llvm.lifetime.start.p0(i64 8, ptr %6) #3
  call void @llvm.lifetime.start.p0(i64 4, ptr %7) #3
  store i32 0, ptr %7, align 4, !tbaa !11
  %9 = load ptr, ptr @libctx, align 8, !tbaa !4
  %10 = call ptr @OSSL_PROVIDER_load(ptr noundef %9, ptr noundef @.str.9)
  store ptr %10, ptr %3, align 8, !tbaa !9
  %11 = call i32 @test_ptr(ptr noundef @.str.6, i32 noundef 130, ptr noundef @.str.8, ptr noundef %10)
  %12 = icmp ne i32 %11, 0
  br i1 %12, label %14, label %13

13:                                               ; preds = %0
  br label %80

14:                                               ; preds = %0
  %15 = load ptr, ptr @libctx, align 8, !tbaa !4
  %16 = call ptr @EVP_PKEY_CTX_new_from_name(ptr noundef %15, ptr noundef @.str.11, ptr noundef null)
  store ptr %16, ptr %2, align 8, !tbaa !15
  %17 = call i32 @test_ptr(ptr noundef @.str.6, i32 noundef 134, ptr noundef @.str.31, ptr noundef %16)
  %18 = icmp ne i32 %17, 0
  br i1 %18, label %20, label %19

19:                                               ; preds = %14
  br label %80

20:                                               ; preds = %14
  %21 = load ptr, ptr %2, align 8, !tbaa !15
  %22 = call i32 @EVP_PKEY_keygen_init(ptr noundef %21)
  %23 = call i32 @test_int_gt(ptr noundef @.str.6, i32 noundef 137, ptr noundef @.str.32, ptr noundef @.str.33, i32 noundef %22, i32 noundef 0)
  %24 = icmp ne i32 %23, 0
  br i1 %24, label %26, label %25

25:                                               ; preds = %20
  br label %80

26:                                               ; preds = %20
  %27 = load ptr, ptr %2, align 8, !tbaa !15
  %28 = call ptr @EVP_PKEY_CTX_get0_provider(ptr noundef %27)
  store ptr %28, ptr %5, align 8, !tbaa !9
  %29 = call i32 @test_ptr(ptr noundef @.str.6, i32 noundef 140, ptr noundef @.str.34, ptr noundef %28)
  %30 = icmp ne i32 %29, 0
  br i1 %30, label %32, label %31

31:                                               ; preds = %26
  br label %80

32:                                               ; preds = %26
  %33 = load ptr, ptr %5, align 8, !tbaa !9
  %34 = call ptr @OSSL_PROVIDER_get0_name(ptr noundef %33)
  store ptr %34, ptr %6, align 8, !tbaa !21
  %35 = call i32 @test_ptr(ptr noundef @.str.6, i32 noundef 143, ptr noundef @.str.35, ptr noundef %34)
  %36 = icmp ne i32 %35, 0
  br i1 %36, label %38, label %37

37:                                               ; preds = %32
  br label %80

38:                                               ; preds = %32
  %39 = load ptr, ptr %6, align 8, !tbaa !21
  %40 = call i32 @test_str_eq(ptr noundef @.str.6, i32 noundef 146, ptr noundef @.str.36, ptr noundef @.str.37, ptr noundef %39, ptr noundef @.str.9)
  %41 = icmp ne i32 %40, 0
  br i1 %41, label %43, label %42

42:                                               ; preds = %38
  br label %80

43:                                               ; preds = %38
  %44 = load ptr, ptr %2, align 8, !tbaa !15
  call void @EVP_PKEY_CTX_free(ptr noundef %44)
  store ptr null, ptr %2, align 8, !tbaa !15
  %45 = load ptr, ptr @libctx, align 8, !tbaa !4
  %46 = call ptr @fake_rsa_start(ptr noundef %45)
  store ptr %46, ptr %4, align 8, !tbaa !9
  %47 = call i32 @test_ptr(ptr noundef @.str.6, i32 noundef 153, ptr noundef @.str.7, ptr noundef %46)
  %48 = icmp ne i32 %47, 0
  br i1 %48, label %50, label %49

49:                                               ; preds = %43
  store i32 0, ptr %1, align 4
  store i32 1, ptr %8, align 4
  br label %86

50:                                               ; preds = %43
  %51 = load ptr, ptr @libctx, align 8, !tbaa !4
  %52 = call ptr @EVP_PKEY_CTX_new_from_name(ptr noundef %51, ptr noundef @.str.11, ptr noundef @.str.14)
  store ptr %52, ptr %2, align 8, !tbaa !15
  %53 = call i32 @test_ptr(ptr noundef @.str.6, i32 noundef 157, ptr noundef @.str.38, ptr noundef %52)
  %54 = icmp ne i32 %53, 0
  br i1 %54, label %56, label %55

55:                                               ; preds = %50
  br label %80

56:                                               ; preds = %50
  %57 = load ptr, ptr %2, align 8, !tbaa !15
  %58 = call i32 @EVP_PKEY_keygen_init(ptr noundef %57)
  %59 = call i32 @test_int_gt(ptr noundef @.str.6, i32 noundef 160, ptr noundef @.str.32, ptr noundef @.str.33, i32 noundef %58, i32 noundef 0)
  %60 = icmp ne i32 %59, 0
  br i1 %60, label %62, label %61

61:                                               ; preds = %56
  br label %80

62:                                               ; preds = %56
  %63 = load ptr, ptr %2, align 8, !tbaa !15
  %64 = call ptr @EVP_PKEY_CTX_get0_provider(ptr noundef %63)
  store ptr %64, ptr %5, align 8, !tbaa !9
  %65 = call i32 @test_ptr(ptr noundef @.str.6, i32 noundef 163, ptr noundef @.str.34, ptr noundef %64)
  %66 = icmp ne i32 %65, 0
  br i1 %66, label %68, label %67

67:                                               ; preds = %62
  br label %80

68:                                               ; preds = %62
  %69 = load ptr, ptr %5, align 8, !tbaa !9
  %70 = call ptr @OSSL_PROVIDER_get0_name(ptr noundef %69)
  store ptr %70, ptr %6, align 8, !tbaa !21
  %71 = call i32 @test_ptr(ptr noundef @.str.6, i32 noundef 166, ptr noundef @.str.35, ptr noundef %70)
  %72 = icmp ne i32 %71, 0
  br i1 %72, label %74, label %73

73:                                               ; preds = %68
  br label %80

74:                                               ; preds = %68
  %75 = load ptr, ptr %6, align 8, !tbaa !21
  %76 = call i32 @test_str_eq(ptr noundef @.str.6, i32 noundef 169, ptr noundef @.str.36, ptr noundef @.str.39, ptr noundef %75, ptr noundef @.str.40)
  %77 = icmp ne i32 %76, 0
  br i1 %77, label %79, label %78

78:                                               ; preds = %74
  br label %80

79:                                               ; preds = %74
  store i32 1, ptr %7, align 4, !tbaa !11
  br label %80

80:                                               ; preds = %79, %78, %73, %67, %61, %55, %42, %37, %31, %25, %19, %13
  %81 = load ptr, ptr %4, align 8, !tbaa !9
  call void @fake_rsa_finish(ptr noundef %81)
  %82 = load ptr, ptr %3, align 8, !tbaa !9
  %83 = call i32 @OSSL_PROVIDER_unload(ptr noundef %82)
  %84 = load ptr, ptr %2, align 8, !tbaa !15
  call void @EVP_PKEY_CTX_free(ptr noundef %84)
  %85 = load i32, ptr %7, align 4, !tbaa !11
  store i32 %85, ptr %1, align 4
  store i32 1, ptr %8, align 4
  br label %86

86:                                               ; preds = %80, %49
  call void @llvm.lifetime.end.p0(i64 4, ptr %7) #3
  call void @llvm.lifetime.end.p0(i64 8, ptr %6) #3
  call void @llvm.lifetime.end.p0(i64 8, ptr %5) #3
  call void @llvm.lifetime.end.p0(i64 8, ptr %4) #3
  call void @llvm.lifetime.end.p0(i64 8, ptr %3) #3
  call void @llvm.lifetime.end.p0(i64 8, ptr %2) #3
  %87 = load i32, ptr %1, align 4
  ret i32 %87
}