; Function Attrs: nounwind uwtable
define internal range(i32 0, 2) i32 @test_alternative_keygen_init() #0 {
  %1 = load ptr, ptr @libctx, align 8, !tbaa !4
  %2 = tail call ptr @OSSL_PROVIDER_load(ptr noundef %1, ptr noundef nonnull @.str.9) #3
  %3 = tail call i32 @test_ptr(ptr noundef nonnull @.str.6, i32 noundef 130, ptr noundef nonnull @.str.8, ptr noundef %2) #3
  %.not = icmp eq i32 %3, 0
  br i1 %.not, label %38, label %4

4:                                                ; preds = %0
  %5 = load ptr, ptr @libctx, align 8, !tbaa !4
  %6 = tail call ptr @EVP_PKEY_CTX_new_from_name(ptr noundef %5, ptr noundef nonnull @.str.11, ptr noundef null) #3
  %7 = tail call i32 @test_ptr(ptr noundef nonnull @.str.6, i32 noundef 134, ptr noundef nonnull @.str.31, ptr noundef %6) #3
  %.not16 = icmp eq i32 %7, 0
  br i1 %.not16, label %38, label %8

8:                                                ; preds = %4
  %9 = tail call i32 @EVP_PKEY_keygen_init(ptr noundef %6) #3
  %10 = tail call i32 @test_int_gt(ptr noundef nonnull @.str.6, i32 noundef 137, ptr noundef nonnull @.str.32, ptr noundef nonnull @.str.33, i32 noundef %9, i32 noundef 0) #3
  %.not17 = icmp eq i32 %10, 0
  br i1 %.not17, label %38, label %11

11:                                               ; preds = %8
  %12 = tail call ptr @EVP_PKEY_CTX_get0_provider(ptr noundef %6) #3
  %13 = tail call i32 @test_ptr(ptr noundef nonnull @.str.6, i32 noundef 140, ptr noundef nonnull @.str.34, ptr noundef %12) #3
  %.not18 = icmp eq i32 %13, 0
  br i1 %.not18, label %38, label %14

14:                                               ; preds = %11
  %15 = tail call ptr @OSSL_PROVIDER_get0_name(ptr noundef %12) #3
  %16 = tail call i32 @test_ptr(ptr noundef nonnull @.str.6, i32 noundef 143, ptr noundef nonnull @.str.35, ptr noundef %15) #3
  %.not19 = icmp eq i32 %16, 0
  br i1 %.not19, label %38, label %17

17:                                               ; preds = %14
  %18 = tail call i32 @test_str_eq(ptr noundef nonnull @.str.6, i32 noundef 146, ptr noundef nonnull @.str.36, ptr noundef nonnull @.str.37, ptr noundef %15, ptr noundef nonnull @.str.9) #3
  %.not20 = icmp eq i32 %18, 0
  br i1 %.not20, label %38, label %19

19:                                               ; preds = %17
  tail call void @EVP_PKEY_CTX_free(ptr noundef %6) #3
  %20 = load ptr, ptr @libctx, align 8, !tbaa !4
  %21 = tail call ptr @fake_rsa_start(ptr noundef %20) #3
  %22 = tail call i32 @test_ptr(ptr noundef nonnull @.str.6, i32 noundef 153, ptr noundef nonnull @.str.7, ptr noundef %21) #3
  %.not21 = icmp eq i32 %22, 0
  br i1 %.not21, label %40, label %23

23:                                               ; preds = %19
  %24 = load ptr, ptr @libctx, align 8, !tbaa !4
  %25 = tail call ptr @EVP_PKEY_CTX_new_from_name(ptr noundef %24, ptr noundef nonnull @.str.11, ptr noundef nonnull @.str.14) #3
  %26 = tail call i32 @test_ptr(ptr noundef nonnull @.str.6, i32 noundef 157, ptr noundef nonnull @.str.38, ptr noundef %25) #3
  %.not22 = icmp eq i32 %26, 0
  br i1 %.not22, label %38, label %27

27:                                               ; preds = %23
  %28 = tail call i32 @EVP_PKEY_keygen_init(ptr noundef %25) #3
  %29 = tail call i32 @test_int_gt(ptr noundef nonnull @.str.6, i32 noundef 160, ptr noundef nonnull @.str.32, ptr noundef nonnull @.str.33, i32 noundef %28, i32 noundef 0) #3
  %.not23 = icmp eq i32 %29, 0
  br i1 %.not23, label %38, label %30

30:                                               ; preds = %27
  %31 = tail call ptr @EVP_PKEY_CTX_get0_provider(ptr noundef %25) #3
  %32 = tail call i32 @test_ptr(ptr noundef nonnull @.str.6, i32 noundef 163, ptr noundef nonnull @.str.34, ptr noundef %31) #3
  %.not24 = icmp eq i32 %32, 0
  br i1 %.not24, label %38, label %33

33:                                               ; preds = %30
  %34 = tail call ptr @OSSL_PROVIDER_get0_name(ptr noundef %31) #3
  %35 = tail call i32 @test_ptr(ptr noundef nonnull @.str.6, i32 noundef 166, ptr noundef nonnull @.str.35, ptr noundef %34) #3
  %.not25 = icmp eq i32 %35, 0
  br i1 %.not25, label %38, label %36

36:                                               ; preds = %33
  %37 = tail call i32 @test_str_eq(ptr noundef nonnull @.str.6, i32 noundef 169, ptr noundef nonnull @.str.36, ptr noundef nonnull @.str.39, ptr noundef %34, ptr noundef nonnull @.str.40) #3
  %.not26 = icmp ne i32 %37, 0
  %spec.select = zext i1 %.not26 to i32
  br label %38

38:                                               ; preds = %36, %33, %30, %27, %23, %17, %14, %11, %8, %4, %0
  %.014 = phi ptr [ %25, %33 ], [ %25, %30 ], [ %25, %27 ], [ %25, %23 ], [ %6, %17 ], [ %6, %14 ], [ %6, %11 ], [ %6, %8 ], [ %6, %4 ], [ null, %0 ], [ %25, %36 ]
  %.013 = phi ptr [ %21, %33 ], [ %21, %30 ], [ %21, %27 ], [ %21, %23 ], [ null, %17 ], [ null, %14 ], [ null, %11 ], [ null, %8 ], [ null, %4 ], [ null, %0 ], [ %21, %36 ]
  %.0 = phi i32 [ 0, %33 ], [ 0, %30 ], [ 0, %27 ], [ 0, %23 ], [ 0, %17 ], [ 0, %14 ], [ 0, %11 ], [ 0, %8 ], [ 0, %4 ], [ 0, %0 ], [ %spec.select, %36 ]
  tail call void @fake_rsa_finish(ptr noundef %.013) #3
  %39 = tail call i32 @OSSL_PROVIDER_unload(ptr noundef %2) #3
  tail call void @EVP_PKEY_CTX_free(ptr noundef %.014) #3
  br label %40

40:                                               ; preds = %19, %38
  %.015 = phi i32 [ %.0, %38 ], [ 0, %19 ]
  ret i32 %.015
}